target datalayout = "e-m:e-p270:32:32-p271:32:32-p272:64:64-i64:64-i128:128-f80:128-n8:16:32:64-S128"
target triple = "x86_64-pc-linux-gnu"

@hf_mpeg_descr_nordig_lcd_v1_service_list_id = internal global i32 0, align 4
@hf_mpeg_descr_nordig_lcd_v1_service_list_visible_service_flag = internal global i32 0, align 4
@hf_mpeg_descr_nordig_lcd_v1_service_list_reserved = internal global i32 0, align 4
@hf_mpeg_descr_nordig_lcd_v1_service_list_logical_channel_number = internal global i32 0, align 4
@ett_mpeg_descriptor_nordig_lcd_v1_service_list = internal global i32 0, align 4
@.str.768 = private unnamed_addr constant [15 x i8] c"Service 0x%04x\00", align 1

; Function Attrs: null_pointer_is_valid sspstrong uwtable
define internal void @proto_mpeg_descriptor_dissect_nordig_lcd_v1(ptr noundef %0, i32 noundef %1, i32 noundef %2, ptr noundef %3) #1 {
  %5 = alloca ptr, align 8
  %6 = alloca i32, align 4
  %7 = alloca i32, align 4
  %8 = alloca ptr, align 8
  %9 = alloca i32, align 4
  %10 = alloca i32, align 4
  %11 = alloca i16, align 2
  %12 = alloca ptr, align 8
  store ptr %0, ptr %5, align 8
  store i32 %1, ptr %6, align 4
  store i32 %2, ptr %7, align 4
  store ptr %3, ptr %8, align 8
  call void @llvm.lifetime.start.p0(i64 4, ptr %9) #4
  %13 = load i32, ptr %6, align 4
  %14 = load i32, ptr %7, align 4
  %15 = add i32 %13, %14
  store i32 %15, ptr %9, align 4
  %16 = load i32, ptr %7, align 4
  %17 = urem i32 %16, 4
  %18 = icmp ne i32 %17, 0
  br i1 %18, label %19, label %20

19:                                               ; preds = %4
  store i32 1, ptr %10, align 4
  br label %61

20:                                               ; preds = %4
  call void @llvm.lifetime.start.p0(i64 2, ptr %11) #4
  call void @llvm.lifetime.start.p0(i64 8, ptr %12) #4
  br label %21

21:                                               ; preds = %25, %20
  %22 = load i32, ptr %6, align 4
  %23 = load i32, ptr %9, align 4
  %24 = icmp ult i32 %22, %23
  br i1 %24, label %25, label %60

25:                                               ; preds = %21
  %26 = load ptr, ptr %5, align 8
  %27 = load i32, ptr %6, align 4
  %28 = call zeroext i16 @tvb_get_ntohs(ptr noundef %26, i32 noundef %27)
  store i16 %28, ptr %11, align 2
  %29 = load ptr, ptr %8, align 8
  %30 = load ptr, ptr %5, align 8
  %31 = load i32, ptr %6, align 4
  %32 = load i32, ptr @ett_mpeg_descriptor_nordig_lcd_v1_service_list, align 4
  %33 = load i16, ptr %11, align 2
  %34 = zext i16 %33 to i32
  %35 = call ptr (ptr, ptr, i32, i32, i32, ptr, ptr, ...) @proto_tree_add_subtree_format(ptr noundef %29, ptr noundef %30, i32 noundef %31, i32 noundef 3, i32 noundef %32, ptr noundef null, ptr noundef @.str.768, i32 noundef %34)
  store ptr %35, ptr %12, align 8
  %36 = load ptr, ptr %12, align 8
  %37 = load i32, ptr @hf_mpeg_descr_nordig_lcd_v1_service_list_id, align 4
  %38 = load ptr, ptr %5, align 8
  %39 = load i32, ptr %6, align 4
  %40 = call ptr @proto_tree_add_item(ptr noundef %36, i32 noundef %37, ptr noundef %38, i32 noundef %39, i32 noundef 2, i32 noundef 0)
  %41 = load i32, ptr %6, align 4
  %42 = add i32 %41, 2
  store i32 %42, ptr %6, align 4
  %43 = load ptr, ptr %12, align 8
  %44 = load i32, ptr @hf_mpeg_descr_nordig_lcd_v1_service_list_visible_service_flag, align 4
  %45 = load ptr, ptr %5, align 8
  %46 = load i32, ptr %6, align 4
  %47 = call ptr @proto_tree_add_item(ptr noundef %43, i32 noundef %44, ptr noundef %45, i32 noundef %46, i32 noundef 2, i32 noundef 0)
  %48 = load ptr, ptr %12, align 8
  %49 = load i32, ptr @hf_mpeg_descr_nordig_lcd_v1_service_list_reserved, align 4
  %50 = load ptr, ptr %5, align 8
  %51 = load i32, ptr %6, align 4
  %52 = call ptr @proto_tree_add_item(ptr noundef %48, i32 noundef %49, ptr noundef %50, i32 noundef %51, i32 noundef 2, i32 noundef 0)
  %53 = load ptr, ptr %12, align 8
  %54 = load i32, ptr @hf_mpeg_descr_nordig_lcd_v1_service_list_logical_channel_number, align 4
  %55 = load ptr, ptr %5, align 8
  %56 = load i32, ptr %6, align 4
  %57 = call ptr @proto_tree_add_item(ptr noundef %53, i32 noundef %54, ptr noundef %55, i32 noundef %56, i32 noundef 2, i32 noundef 0)
  %58 = load i32, ptr %6, align 4
  %59 = add i32 %58, 2
  store i32 %59, ptr %6, align 4
  br label %21, !llvm.loop !32

60:                                               ; preds = %21
  call void @llvm.lifetime.end.p0(i64 8, ptr %12) #4
  call void @llvm.lifetime.end.p0(i64 2, ptr %11) #4
  store i32 0, ptr %10, align 4
  br label %61

61:                                               ; preds = %60, %19
  call void @llvm.lifetime.end.p0(i64 4, ptr %9) #4
  %62 = load i32, ptr %10, align 4
  switch i32 %62, label %64 [
    i32 0, label %63
    i32 1, label %63
  ]

63:                                               ; preds = %61, %61
  ret void

64:                                               ; preds = %61
  unreachable
}