; Function Attrs: null_pointer_is_valid sspstrong uwtable
define internal fastcc void @proto_mpeg_descriptor_dissect_nordig_lcd_v1(ptr noundef %0, i32 noundef %1, i32 noundef range(i32 1, 256) %2, ptr noundef %3) unnamed_addr #1 {
  %5 = add i32 %2, %1
  %6 = and i32 %2, 3
  %.not = icmp eq i32 %6, 0
  %7 = icmp ult i32 %1, %5
  %or.cond = and i1 %.not, %7
  br i1 %or.cond, label %.lr.ph, label %.loopexit

.lr.ph:                                           ; preds = %4, %.lr.ph
  %.024 = phi i32 [ %21, %.lr.ph ], [ %1, %4 ]
  %8 = tail call zeroext i16 @tvb_get_ntohs(ptr noundef %0, i32 noundef %.024)
  %9 = load i32, ptr @ett_mpeg_descriptor_nordig_lcd_v1_service_list, align 4
  %10 = zext i16 %8 to i32
  %11 = tail call ptr (ptr, ptr, i32, i32, i32, ptr, ptr, ...) @proto_tree_add_subtree_format(ptr noundef %3, ptr noundef %0, i32 noundef %.024, i32 noundef 3, i32 noundef %9, ptr noundef null, ptr noundef nonnull @.str.768, i32 noundef %10)
  %12 = load i32, ptr @hf_mpeg_descr_nordig_lcd_v1_service_list_id, align 4
  %13 = tail call ptr @proto_tree_add_item(ptr noundef %11, i32 noundef %12, ptr noundef %0, i32 noundef %.024, i32 noundef 2, i32 noundef 0)
  %14 = add i32 %.024, 2
  %15 = load i32, ptr @hf_mpeg_descr_nordig_lcd_v1_service_list_visible_service_flag, align 4
  %16 = tail call ptr @proto_tree_add_item(ptr noundef %11, i32 noundef %15, ptr noundef %0, i32 noundef %14, i32 noundef 2, i32 noundef 0)
  %17 = load i32, ptr @hf_mpeg_descr_nordig_lcd_v1_service_list_reserved, align 4
  %18 = tail call ptr @proto_tree_add_item(ptr noundef %11, i32 noundef %17, ptr noundef %0, i32 noundef %14, i32 noundef 2, i32 noundef 0)
  %19 = load i32, ptr @hf_mpeg_descr_nordig_lcd_v1_service_list_logical_channel_number, align 4
  %20 = tail call ptr @proto_tree_add_item(ptr noundef %11, i32 noundef %19, ptr noundef %0, i32 noundef %14, i32 noundef 2, i32 noundef 0)
  %21 = add i32 %.024, 4
  %22 = icmp ult i32 %21, %5
  br i1 %22, label %.lr.ph, label %.loopexit, !llvm.loop !29

.loopexit:                                        ; preds = %.lr.ph, %4
  ret void
}